(lp0
(I2
I1
I0
I4
I3
I7
I6
I8
I5
tp1
a(I2
I1
I3
I0
I8
I4
I5
I7
I6
tp2
a(I2
I1
I4
I7
I0
I5
I8
I6
I3
tp3
a(I2
I1
I5
I8
I4
I6
I3
I0
I7
tp4
a(I2
I1
I8
I6
I7
I3
I4
I5
I0
tp5
a(I2
I3
I0
I5
I7
I6
I8
I4
I1
tp6
a(I2
I3
I1
I0
I5
I7
I4
I6
I8
tp7
a(I2
I3
I5
I7
I6
I8
I0
I1
I4
tp8
a(I2
I4
I3
I1
I0
I8
I6
I5
I7
tp9
a(I2
I5
I6
I4
I0
I3
I7
I1
I8
tp10
a(I2
I6
I8
I0
I4
I1
I7
I3
I5
tp11
a(I2
I8
I7
I4
I1
I6
I0
I5
I3
tp12
a(I3
I0
I7
I4
I6
I5
I8
I2
I1
tp13
a(I3
I1
I0
I7
I5
I8
I4
I2
I6
tp14
a(I3
I1
I2
I5
I0
I6
I7
I8
I4
tp15
a(I3
I1
I4
I2
I6
I7
I5
I0
I8
tp16
a(I3
I2
I1
I6
I8
I0
I4
I7
I5
tp17
a(I3
I2
I6
I7
I4
I1
I5
I8
I0
tp18
a(I3
I4
I0
I8
I6
I2
I7
I1
I5
tp19
a(I3
I4
I5
I0
I1
I6
I2
I7
I8
tp20
a(I3
I4
I7
I5
I8
I1
I0
I6
I2
tp21
a(I3
I5
I2
I1
I7
I4
I8
I0
I6
tp22
a(I3
I5
I7
I6
I2
I8
I1
I4
I0
tp23
a(I3
I6
I1
I7
I2
I4
I0
I5
I8
tp24
a(I3
I6
I4
I1
I5
I0
I2
I8
I7
tp25
a(I3
I7
I8
I2
I1
I5
I0
I4
I6
tp26
a(I3
I8
I6
I0
I7
I5
I4
I1
I2
tp27
a(I4
I1
I3
I8
I5
I0
I7
I6
I2
tp28
a(I4
I1
I5
I3
I7
I2
I0
I8
I6
tp29
a(I4
I1
I7
I2
I8
I5
I6
I3
I0
tp30
a(I4
I2
I5
I0
I8
I3
I1
I6
I7
tp31
a(I4
I2
I8
I1
I0
I6
I5
I7
I3
tp32
a(I4
I3
I0
I6
I8
I7
I5
I1
I2
tp33
a(I4
I3
I6
I2
I1
I8
I7
I0
I5
tp34
a(I4
I5
I0
I7
I6
I3
I2
I8
I1
tp35
a(I4
I5
I1
I0
I3
I8
I6
I7
I2
tp36
a(I4
I5
I7
I8
I0
I1
I3
I2
I6
tp37
a(I4
I6
I2
I5
I7
I8
I3
I1
I0
tp38
a(I4
I7
I2
I8
I6
I5
I1
I0
I3
tp39
a(I4
I7
I5
I6
I2
I0
I8
I3
I1
tp40
a(I5
I0
I7
I1
I3
I6
I4
I8
I2
tp41
a(I5
I2
I3
I4
I8
I6
I7
I0
I1
tp42
a(I5
I2
I4
I7
I1
I0
I6
I3
I8
tp43
a(I5
I3
I1
I4
I0
I2
I8
I7
I6
tp44
a(I5
I3
I6
I8
I4
I7
I0
I2
I1
tp45
a(I5
I3
I8
I2
I7
I0
I1
I6
I4
tp46
a(I5
I4
I2
I0
I6
I1
I3
I8
I7
tp47
a(I5
I4
I8
I3
I2
I7
I6
I1
I0
tp48
a(I5
I6
I0
I7
I8
I2
I1
I4
I3
tp49
a(I5
I7
I1
I6
I4
I3
I2
I0
I8
tp50
a(I5
I7
I2
I3
I0
I8
I4
I6
I1
tp51
a(I6
I0
I2
I5
I4
I1
I8
I7
I3
tp52
a(I6
I0
I3
I4
I7
I2
I1
I5
I8
tp53
a(I6
I0
I5
I1
I8
I7
I3
I2
I4
tp54
a(I6
I1
I4
I8
I2
I3
I0
I7
I5
tp55
a(I6
I2
I4
I0
I5
I8
I7
I1
I3
tp56
a(I6
I2
I7
I3
I0
I4
I1
I8
I5
tp57
a(I6
I3
I0
I8
I1
I4
I2
I5
I7
tp58
a(I6
I3
I8
I7
I2
I5
I4
I0
I1
tp59
a(I6
I4
I1
I3
I8
I2
I5
I0
I7
tp60
a(I6
I5
I3
I2
I1
I7
I4
I8
I0
tp61
a(I6
I7
I2
I1
I3
I0
I5
I4
I8
tp62
a(I6
I8
I3
I7
I4
I0
I2
I1
I5
tp63
a(I7
I0
I1
I2
I3
I4
I8
I6
I5
tp64
a.