(lp0
(I1
I2
I4
I0
I8
I3
I5
I7
I6
tp1
a(I1
I2
I5
I8
I3
I4
I7
I6
I0
tp2
a(I1
I2
I6
I8
I4
I5
I3
I0
I7
tp3
a(I1
I2
I7
I0
I4
I6
I8
I3
I5
tp4
a(I1
I2
I7
I5
I0
I3
I6
I4
I8
tp5
a(I1
I2
I8
I3
I5
I6
I4
I7
I0
tp6
a(I1
I3
I0
I8
I4
I7
I2
I6
I5
tp7
a(I1
I3
I5
I8
I6
I0
I4
I7
I2
tp8
a(I1
I3
I8
I0
I6
I4
I7
I2
I5
tp9
a(I1
I3
I8
I4
I2
I7
I5
I0
I6
tp10
a(I1
I4
I0
I2
I7
I8
I5
I6
I3
tp11
a(I1
I4
I0
I5
I3
I6
I2
I7
I8
tp12
a(I1
I4
I0
I8
I2
I3
I6
I5
I7
tp13
a(I1
I4
I2
I3
I8
I0
I7
I6
I5
tp14
a(I1
I4
I2
I7
I5
I6
I8
I0
I3
tp15
a(I1
I4
I3
I0
I7
I5
I2
I8
I6
tp16
a(I1
I4
I3
I5
I6
I8
I0
I2
I7
tp17
a(I1
I4
I5
I3
I0
I7
I8
I2
I6
tp18
a(I1
I4
I5
I6
I2
I8
I3
I7
I0
tp19
a(I1
I4
I6
I2
I3
I7
I0
I8
I5
tp20
a(I1
I5
I2
I6
I0
I4
I7
I8
I3
tp21
a(I1
I5
I3
I0
I6
I7
I8
I4
I2
tp22
a(I1
I5
I3
I2
I8
I4
I6
I0
I7
tp23
a(I1
I5
I4
I3
I7
I2
I0
I6
I8
tp24
a(I1
I5
I4
I7
I0
I8
I2
I3
I6
tp25
a(I1
I5
I6
I0
I7
I8
I3
I2
I4
tp26
a(I1
I5
I6
I2
I4
I3
I8
I7
I0
tp27
a(I1
I5
I6
I3
I2
I0
I4
I8
I7
tp28
a(I1
I5
I7
I6
I3
I8
I4
I0
I2
tp29
a(I1
I5
I7
I8
I2
I6
I0
I4
I3
tp30
a(I1
I5
I8
I7
I4
I0
I6
I2
I3
tp31
a(I1
I6
I0
I3
I5
I8
I7
I4
I2
tp32
a(I1
I6
I2
I7
I3
I0
I4
I5
I8
tp33
a(I1
I6
I3
I8
I0
I5
I7
I2
I4
tp34
a(I1
I6
I4
I0
I5
I2
I3
I8
I7
tp35
a(I1
I6
I5
I4
I7
I2
I8
I3
I0
tp36
a(I1
I6
I5
I7
I4
I3
I0
I8
I2
tp37
a(I1
I6
I7
I0
I8
I4
I2
I5
I3
tp38
a(I1
I6
I8
I2
I7
I3
I4
I0
I5
tp39
a(I1
I7
I0
I6
I2
I5
I4
I3
I8
tp40
a(I1
I7
I2
I3
I6
I4
I8
I5
I0
tp41
a(I1
I7
I2
I5
I4
I0
I3
I8
I6
tp42
a(I1
I7
I3
I8
I5
I2
I6
I4
I0
tp43
a(I1
I7
I8
I4
I3
I5
I0
I6
I2
tp44
a(I1
I8
I0
I2
I5
I4
I3
I7
I6
tp45
a(I1
I8
I0
I7
I6
I3
I5
I2
I4
tp46
a(I1
I8
I4
I5
I3
I2
I7
I0
I6
tp47
a(I1
I8
I5
I6
I4
I0
I2
I3
I7
tp48
a(I1
I8
I5
I7
I0
I2
I4
I6
I3
tp49
a(I2
I0
I1
I3
I4
I6
I8
I5
I7
tp50
a(I2
I0
I1
I4
I3
I8
I7
I6
I5
tp51
a(I2
I0
I1
I5
I6
I3
I4
I7
I8
tp52
a(I2
I0
I1
I6
I7
I5
I3
I8
I4
tp53
a(I2
I0
I3
I1
I8
I7
I5
I4
I6
tp54
a(I2
I0
I3
I7
I4
I1
I6
I8
I5
tp55
a(I2
I0
I3
I8
I1
I5
I4
I6
I7
tp56
a(I2
I0
I5
I1
I7
I4
I6
I3
I8
tp57
a(I2
I0
I5
I4
I6
I7
I8
I1
I3
tp58
a(I2
I0
I6
I7
I5
I3
I8
I4
I1
tp59
a(I2
I0
I7
I1
I5
I6
I4
I8
I3
tp60
a(I2
I0
I7
I8
I3
I4
I1
I5
I6
tp61
a(I2
I0
I8
I7
I1
I6
I5
I3
I4
tp62
a(I2
I1
I0
I3
I4
I5
I7
I8
I6
tp63
a(I2
I1
I0
I4
I5
I8
I6
I3
I7
tp64
a(I2
I1
I0
I5
I7
I6
I8
I4
I3
tp65
a(I2
I1
I0
I7
I8
I3
I4
I6
I5
tp66
a(I2
I1
I3
I0
I4
I6
I5
I7
I8
tp67
a(I2
I1
I3
I6
I5
I7
I8
I0
I4
tp68
a(I2
I7
I4
I6
I1
I8
I0
I5
I3
tp69
a(I3
I1
I8
I5
I0
I4
I2
I6
I7
tp70
a(I3
I4
I6
I0
I1
I2
I7
I5
I8
tp71
a(I3
I5
I7
I4
I6
I1
I2
I8
I0
tp72
a(I3
I6
I2
I8
I1
I4
I0
I7
I5
tp73
a(I3
I6
I4
I2
I0
I7
I5
I1
I8
tp74
a(I3
I7
I4
I5
I8
I6
I1
I2
I0
tp75
a(I3
I8
I7
I0
I2
I5
I1
I6
I4
tp76
a(I4
I2
I8
I5
I7
I1
I0
I3
I6
tp77
a(I4
I3
I2
I6
I8
I5
I0
I1
I7
tp78
a(I4
I7
I5
I2
I1
I6
I3
I0
I8
tp79
a(I4
I7
I6
I8
I3
I0
I5
I2
I1
tp80
a(I4
I8
I1
I3
I0
I5
I6
I7
I2
tp81
a(I5
I3
I2
I8
I7
I1
I6
I0
I4
tp82
a(I5
I3
I6
I2
I0
I8
I1
I4
I7
tp83
a(I5
I8
I2
I0
I1
I7
I4
I3
I6
tp84
a(I5
I8
I3
I4
I2
I6
I7
I1
I0
tp85
a(I6
I3
I1
I2
I8
I7
I4
I5
I0
tp86
a(I6
I3
I4
I1
I0
I2
I8
I7
I5
tp87
a(I6
I4
I7
I2
I5
I0
I1
I3
I8
tp88
a(I6
I8
I1
I7
I2
I0
I3
I4
I5
tp89
a(I6
I8
I2
I4
I7
I3
I0
I5
I1
tp90
a(I7
I1
I4
I8
I0
I6
I3
I5
I2
tp91
a(I7
I2
I5
I3
I6
I8
I1
I0
I4
tp92
a(I7
I3
I1
I4
I5
I6
I0
I2
I8
tp93
a(I7
I3
I6
I5
I1
I4
I8
I0
I2
tp94
a(I7
I5
I0
I6
I8
I2
I3
I4
I1
tp95
a(I7
I8
I4
I1
I5
I3
I2
I6
I0
tp96
a(I8
I0
I4
I2
I6
I5
I7
I3
I1
tp97
a(I8
I4
I7
I1
I3
I5
I6
I2
I0
tp98
a(I8
I6
I3
I4
I5
I0
I2
I7
I1
tp99
a(I8
I7
I6
I5
I2
I3
I0
I1
I4
tp100
a.